target datalayout = "e-m:e-p270:32:32-p271:32:32-p272:64:64-i64:64-i128:128-f80:128-n8:16:32:64-S128"
target triple = "x86_64-unknown-linux-gnu"

%struct.QEMUTimer = type { i64, ptr, ptr, ptr, ptr, i32, i32 }

; Function Attrs: nounwind sspstrong uwtable
define internal zeroext i1 @timer_expired_ns(ptr noundef %timer_head, i64 noundef %current_time) #0 {
entry:
  %timer_head.addr = alloca ptr, align 8
  %current_time.addr = alloca i64, align 8
  store ptr %timer_head, ptr %timer_head.addr, align 8
  store i64 %current_time, ptr %current_time.addr, align 8
  %0 = load ptr, ptr %timer_head.addr, align 8
  %tobool = icmp ne ptr %0, null
  br i1 %tobool, label %land.rhs, label %land.end

land.rhs:                                         ; preds = %entry
  %1 = load ptr, ptr %timer_head.addr, align 8
  %expire_time = getelementptr inbounds %struct.QEMUTimer, ptr %1, i32 0, i32 0
  %2 = load i64, ptr %expire_time, align 8
  %3 = load i64, ptr %current_time.addr, align 8
  %cmp = icmp sle i64 %2, %3
  br label %land.end

land.end:                                         ; preds = %land.rhs, %entry
  %4 = phi i1 [ false, %entry ], [ %cmp, %land.rhs ]
  ret i1 %4
}

; Function Attrs: nounwind sspstrong uwtable
define dso_local zeroext i1 @timer_expired(ptr noundef %timer_head, i64 noundef %current_time) #0 {
entry:
  %timer_head.addr = alloca ptr, align 8
  %current_time.addr = alloca i64, align 8
  store ptr %timer_head, ptr %timer_head.addr, align 8
  store i64 %current_time, ptr %current_time.addr, align 8
  %0 = load ptr, ptr %timer_head.addr, align 8
  %1 = load i64, ptr %current_time.addr, align 8
  %2 = load ptr, ptr %timer_head.addr, align 8
  %scale = getelementptr inbounds %struct.QEMUTimer, ptr %2, i32 0, i32 6
  %3 = load i32, ptr %scale, align 4
  %conv = sext i32 %3 to i64
  %mul = mul i64 %1, %conv
  %call = call zeroext i1 @timer_expired_ns(ptr noundef %0, i64 noundef %mul)
  ret i1 %call
}