; Function Attrs: mustprogress nofree norecurse nosync nounwind sspstrong willreturn memory(argmem: read) uwtable
define dso_local zeroext i1 @timer_expired(ptr noundef readonly captures(none) %timer_head, i64 noundef %current_time) local_unnamed_addr #10 {
timer_expired_ns.exit:
  %scale = getelementptr inbounds nuw i8, ptr %timer_head, i64 44
  %0 = load i32, ptr %scale, align 4
  %conv = sext i32 %0 to i64
  %mul = mul i64 %current_time, %conv
  %1 = load i64, ptr %timer_head, align 8
  %cmp.i = icmp sle i64 %1, %mul
  ret i1 %cmp.i
}